target datalayout = "e-m:e-p270:32:32-p271:32:32-p272:64:64-i64:64-i128:128-f80:128-n8:16:32:64-S128"
target triple = "x86_64-pc-linux-gnu"

@.str.3 = private unnamed_addr constant [14 x i8] c"signalfuncs.c\00", align 1
@PostmasterPid = external global i32, align 4
@.str.13 = private unnamed_addr constant [40 x i8] c"failed to send signal to postmaster: %m\00", align 1
@__func__.pg_reload_conf = private unnamed_addr constant [15 x i8] c"pg_reload_conf\00", align 1

; Function Attrs: inlinehint nounwind uwtable
define internal i64 @BoolGetDatum(i1 noundef zeroext %0) #2 {
  %2 = alloca i8, align 1
  %3 = zext i1 %0 to i8
  store i8 %3, ptr %2, align 1
  %4 = load i8, ptr %2, align 1, !range !4, !noundef !5
  %5 = trunc i8 %4 to i1
  %6 = select i1 %5, i32 1, i32 0
  %7 = sext i32 %6 to i64
  ret i64 %7
}

; Function Attrs: nounwind uwtable
define dso_local i64 @pg_reload_conf(ptr noundef %0) #0 {
  %2 = alloca i64, align 8
  %3 = alloca ptr, align 8
  store ptr %0, ptr %3, align 8
  %4 = load i32, ptr @PostmasterPid, align 4
  %5 = call i32 @kill(i32 noundef %4, i32 noundef 1) #8
  %6 = icmp ne i32 %5, 0
  br i1 %6, label %7, label %18

7:                                                ; preds = %1
  br label %8

8:                                                ; preds = %7
  br i1 false, label %9, label %11

9:                                                ; preds = %8
  %10 = call zeroext i1 @errstart_cold(i32 noundef 19, ptr noundef null) #9
  br i1 %10, label %13, label %15

11:                                               ; preds = %8
  %12 = call zeroext i1 @errstart(i32 noundef 19, ptr noundef null)
  br i1 %12, label %13, label %15

13:                                               ; preds = %11, %9
  %14 = call i32 (ptr, ...) @errmsg(ptr noundef @.str.13)
  call void @errfinish(ptr noundef @.str.3, i32 noundef 293, ptr noundef @__func__.pg_reload_conf)
  br label %15

15:                                               ; preds = %13, %11, %9
  br label %16

16:                                               ; preds = %15
  %17 = call i64 @BoolGetDatum(i1 noundef zeroext false)
  store i64 %17, ptr %2, align 8
  br label %20

18:                                               ; preds = %1
  %19 = call i64 @BoolGetDatum(i1 noundef zeroext true)
  store i64 %19, ptr %2, align 8
  br label %20

20:                                               ; preds = %18, %16
  %21 = load i64, ptr %2, align 8
  ret i64 %21
}