; Function Attrs: nounwind uwtable
define dso_local range(i64 0, 2) i64 @pg_reload_conf(ptr noundef readnone captures(none) %0) local_unnamed_addr #0 {
  %2 = load i32, ptr @PostmasterPid, align 4
  %3 = tail call i32 @kill(i32 noundef %2, i32 noundef 1) #8
  %.not = icmp eq i32 %3, 0
  br i1 %.not, label %8, label %4

4:                                                ; preds = %1
  %5 = tail call zeroext i1 @errstart(i32 noundef 19, ptr noundef null) #8
  br i1 %5, label %6, label %8

6:                                                ; preds = %4
  %7 = tail call i32 (ptr, ...) @errmsg(ptr noundef nonnull @.str.13) #8
  tail call void @errfinish(ptr noundef nonnull @.str.3, i32 noundef 293, ptr noundef nonnull @__func__.pg_reload_conf) #8
  br label %8

8:                                                ; preds = %1, %6, %4
  %.0 = phi i64 [ 0, %4 ], [ 0, %6 ], [ 1, %1 ]
  ret i64 %.0
}